target datalayout = "e-m:e-p270:32:32-p271:32:32-p272:64:64-i64:64-i128:128-f80:128-n8:16:32:64-S128"
target triple = "x86_64-pc-linux-gnu"

%struct.png_row_info_struct = type { i32, i64, i8, i8, i8, i8 }

; Function Attrs: nounwind uwtable
define void @png_do_strip_channel(ptr noundef %0, ptr noundef %1, i32 noundef %2) #0 {
  %4 = alloca ptr, align 8
  %5 = alloca ptr, align 8
  %6 = alloca i32, align 4
  %7 = alloca ptr, align 8
  %8 = alloca ptr, align 8
  %9 = alloca ptr, align 8
  store ptr %0, ptr %4, align 8
  store ptr %1, ptr %5, align 8
  store i32 %2, ptr %6, align 4
  %10 = load ptr, ptr %5, align 8
  store ptr %10, ptr %7, align 8
  %11 = load ptr, ptr %5, align 8
  store ptr %11, ptr %8, align 8
  %12 = load ptr, ptr %5, align 8
  %13 = load ptr, ptr %4, align 8
  %14 = getelementptr inbounds %struct.png_row_info_struct, ptr %13, i32 0, i32 1
  %15 = load i64, ptr %14, align 8
  %16 = getelementptr inbounds i8, ptr %12, i64 %15
  store ptr %16, ptr %9, align 8
  %17 = load ptr, ptr %4, align 8
  %18 = getelementptr inbounds %struct.png_row_info_struct, ptr %17, i32 0, i32 4
  %19 = load i8, ptr %18, align 2
  %20 = zext i8 %19 to i32
  %21 = icmp eq i32 %20, 2
  br i1 %21, label %22, label %105

22:                                               ; preds = %3
  %23 = load ptr, ptr %4, align 8
  %24 = getelementptr inbounds %struct.png_row_info_struct, ptr %23, i32 0, i32 3
  %25 = load i8, ptr %24, align 1
  %26 = zext i8 %25 to i32
  %27 = icmp eq i32 %26, 8
  br i1 %27, label %28, label %54

28:                                               ; preds = %22
  %29 = load i32, ptr %6, align 4
  %30 = icmp ne i32 %29, 0
  br i1 %30, label %31, label %34

31:                                               ; preds = %28
  %32 = load ptr, ptr %7, align 8
  %33 = getelementptr inbounds i8, ptr %32, i32 1
  store ptr %33, ptr %7, align 8
  br label %39

34:                                               ; preds = %28
  %35 = load ptr, ptr %7, align 8
  %36 = getelementptr inbounds i8, ptr %35, i64 2
  store ptr %36, ptr %7, align 8
  %37 = load ptr, ptr %8, align 8
  %38 = getelementptr inbounds i8, ptr %37, i32 1
  store ptr %38, ptr %8, align 8
  br label %39

39:                                               ; preds = %34, %31
  br label %40

40:                                               ; preds = %44, %39
  %41 = load ptr, ptr %7, align 8
  %42 = load ptr, ptr %9, align 8
  %43 = icmp ult ptr %41, %42
  br i1 %43, label %44, label %51

44:                                               ; preds = %40
  %45 = load ptr, ptr %7, align 8
  %46 = load i8, ptr %45, align 1
  %47 = load ptr, ptr %8, align 8
  %48 = getelementptr inbounds i8, ptr %47, i32 1
  store ptr %48, ptr %8, align 8
  store i8 %46, ptr %47, align 1
  %49 = load ptr, ptr %7, align 8
  %50 = getelementptr inbounds i8, ptr %49, i64 2
  store ptr %50, ptr %7, align 8
  br label %40, !llvm.loop !10

51:                                               ; preds = %40
  %52 = load ptr, ptr %4, align 8
  %53 = getelementptr inbounds %struct.png_row_info_struct, ptr %52, i32 0, i32 5
  store i8 8, ptr %53, align 1
  br label %93

54:                                               ; preds = %22
  %55 = load ptr, ptr %4, align 8
  %56 = getelementptr inbounds %struct.png_row_info_struct, ptr %55, i32 0, i32 3
  %57 = load i8, ptr %56, align 1
  %58 = zext i8 %57 to i32
  %59 = icmp eq i32 %58, 16
  br i1 %59, label %60, label %91

60:                                               ; preds = %54
  %61 = load i32, ptr %6, align 4
  %62 = icmp ne i32 %61, 0
  br i1 %62, label %63, label %66

63:                                               ; preds = %60
  %64 = load ptr, ptr %7, align 8
  %65 = getelementptr inbounds i8, ptr %64, i64 2
  store ptr %65, ptr %7, align 8
  br label %71

66:                                               ; preds = %60
  %67 = load ptr, ptr %7, align 8
  %68 = getelementptr inbounds i8, ptr %67, i64 4
  store ptr %68, ptr %7, align 8
  %69 = load ptr, ptr %8, align 8
  %70 = getelementptr inbounds i8, ptr %69, i64 2
  store ptr %70, ptr %8, align 8
  br label %71

71:                                               ; preds = %66, %63
  br label %72

72:                                               ; preds = %76, %71
  %73 = load ptr, ptr %7, align 8
  %74 = load ptr, ptr %9, align 8
  %75 = icmp ult ptr %73, %74
  br i1 %75, label %76, label %88

76:                                               ; preds = %72
  %77 = load ptr, ptr %7, align 8
  %78 = getelementptr inbounds i8, ptr %77, i32 1
  store ptr %78, ptr %7, align 8
  %79 = load i8, ptr %77, align 1
  %80 = load ptr, ptr %8, align 8
  %81 = getelementptr inbounds i8, ptr %80, i32 1
  store ptr %81, ptr %8, align 8
  store i8 %79, ptr %80, align 1
  %82 = load ptr, ptr %7, align 8
  %83 = load i8, ptr %82, align 1
  %84 = load ptr, ptr %8, align 8
  %85 = getelementptr inbounds i8, ptr %84, i32 1
  store ptr %85, ptr %8, align 8
  store i8 %83, ptr %84, align 1
  %86 = load ptr, ptr %7, align 8
  %87 = getelementptr inbounds i8, ptr %86, i64 3
  store ptr %87, ptr %7, align 8
  br label %72, !llvm.loop !11

88:                                               ; preds = %72
  %89 = load ptr, ptr %4, align 8
  %90 = getelementptr inbounds %struct.png_row_info_struct, ptr %89, i32 0, i32 5
  store i8 16, ptr %90, align 1
  br label %92

91:                                               ; preds = %54
  br label %234

92:                                               ; preds = %88
  br label %93

93:                                               ; preds = %92, %51
  %94 = load ptr, ptr %4, align 8
  %95 = getelementptr inbounds %struct.png_row_info_struct, ptr %94, i32 0, i32 4
  store i8 1, ptr %95, align 2
  %96 = load ptr, ptr %4, align 8
  %97 = getelementptr inbounds %struct.png_row_info_struct, ptr %96, i32 0, i32 2
  %98 = load i8, ptr %97, align 8
  %99 = zext i8 %98 to i32
  %100 = icmp eq i32 %99, 4
  br i1 %100, label %101, label %104

101:                                              ; preds = %93
  %102 = load ptr, ptr %4, align 8
  %103 = getelementptr inbounds %struct.png_row_info_struct, ptr %102, i32 0, i32 2
  store i8 0, ptr %103, align 8
  br label %104

104:                                              ; preds = %101, %93
  br label %226

105:                                              ; preds = %3
  %106 = load ptr, ptr %4, align 8
  %107 = getelementptr inbounds %struct.png_row_info_struct, ptr %106, i32 0, i32 4
  %108 = load i8, ptr %107, align 2
  %109 = zext i8 %108 to i32
  %110 = icmp eq i32 %109, 4
  br i1 %110, label %111, label %224

111:                                              ; preds = %105
  %112 = load ptr, ptr %4, align 8
  %113 = getelementptr inbounds %struct.png_row_info_struct, ptr %112, i32 0, i32 3
  %114 = load i8, ptr %113, align 1
  %115 = zext i8 %114 to i32
  %116 = icmp eq i32 %115, 8
  br i1 %116, label %117, label %153

117:                                              ; preds = %111
  %118 = load i32, ptr %6, align 4
  %119 = icmp ne i32 %118, 0
  br i1 %119, label %120, label %123

120:                                              ; preds = %117
  %121 = load ptr, ptr %7, align 8
  %122 = getelementptr inbounds i8, ptr %121, i32 1
  store ptr %122, ptr %7, align 8
  br label %128

123:                                              ; preds = %117
  %124 = load ptr, ptr %7, align 8
  %125 = getelementptr inbounds i8, ptr %124, i64 4
  store ptr %125, ptr %7, align 8
  %126 = load ptr, ptr %8, align 8
  %127 = getelementptr inbounds i8, ptr %126, i64 3
  store ptr %127, ptr %8, align 8
  br label %128

128:                                              ; preds = %123, %120
  br label %129

129:                                              ; preds = %133, %128
  %130 = load ptr, ptr %7, align 8
  %131 = load ptr, ptr %9, align 8
  %132 = icmp ult ptr %130, %131
  br i1 %132, label %133, label %150

133:                                              ; preds = %129
  %134 = load ptr, ptr %7, align 8
  %135 = getelementptr inbounds i8, ptr %134, i32 1
  store ptr %135, ptr %7, align 8
  %136 = load i8, ptr %134, align 1
  %137 = load ptr, ptr %8, align 8
  %138 = getelementptr inbounds i8, ptr %137, i32 1
  store ptr %138, ptr %8, align 8
  store i8 %136, ptr %137, align 1
  %139 = load ptr, ptr %7, align 8
  %140 = getelementptr inbounds i8, ptr %139, i32 1
  store ptr %140, ptr %7, align 8
  %141 = load i8, ptr %139, align 1
  %142 = load ptr, ptr %8, align 8
  %143 = getelementptr inbounds i8, ptr %142, i32 1
  store ptr %143, ptr %8, align 8
  store i8 %141, ptr %142, align 1
  %144 = load ptr, ptr %7, align 8
  %145 = load i8, ptr %144, align 1
  %146 = load ptr, ptr %8, align 8
  %147 = getelementptr inbounds i8, ptr %146, i32 1
  store ptr %147, ptr %8, align 8
  store i8 %145, ptr %146, align 1
  %148 = load ptr, ptr %7, align 8
  %149 = getelementptr inbounds i8, ptr %148, i64 2
  store ptr %149, ptr %7, align 8
  br label %129, !llvm.loop !12

150:                                              ; preds = %129
  %151 = load ptr, ptr %4, align 8
  %152 = getelementptr inbounds %struct.png_row_info_struct, ptr %151, i32 0, i32 5
  store i8 24, ptr %152, align 1
  br label %212

153:                                              ; preds = %111
  %154 = load ptr, ptr %4, align 8
  %155 = getelementptr inbounds %struct.png_row_info_struct, ptr %154, i32 0, i32 3
  %156 = load i8, ptr %155, align 1
  %157 = zext i8 %156 to i32
  %158 = icmp eq i32 %157, 16
  br i1 %158, label %159, label %210

159:                                              ; preds = %153
  %160 = load i32, ptr %6, align 4
  %161 = icmp ne i32 %160, 0
  br i1 %161, label %162, label %165

162:                                              ; preds = %159
  %163 = load ptr, ptr %7, align 8
  %164 = getelementptr inbounds i8, ptr %163, i64 2
  store ptr %164, ptr %7, align 8
  br label %170

165:                                              ; preds = %159
  %166 = load ptr, ptr %7, align 8
  %167 = getelementptr inbounds i8, ptr %166, i64 8
  store ptr %167, ptr %7, align 8
  %168 = load ptr, ptr %8, align 8
  %169 = getelementptr inbounds i8, ptr %168, i64 6
  store ptr %169, ptr %8, align 8
  br label %170

170:                                              ; preds = %165, %162
  br label %171

171:                                              ; preds = %175, %170
  %172 = load ptr, ptr %7, align 8
  %173 = load ptr, ptr %9, align 8
  %174 = icmp ult ptr %172, %173
  br i1 %174, label %175, label %207

175:                                              ; preds = %171
  %176 = load ptr, ptr %7, align 8
  %177 = getelementptr inbounds i8, ptr %176, i32 1
  store ptr %177, ptr %7, align 8
  %178 = load i8, ptr %176, align 1
  %179 = load ptr, ptr %8, align 8
  %180 = getelementptr inbounds i8, ptr %179, i32 1
  store ptr %180, ptr %8, align 8
  store i8 %178, ptr %179, align 1
  %181 = load ptr, ptr %7, align 8
  %182 = getelementptr inbounds i8, ptr %181, i32 1
  store ptr %182, ptr %7, align 8
  %183 = load i8, ptr %181, align 1
  %184 = load ptr, ptr %8, align 8
  %185 = getelementptr inbounds i8, ptr %184, i32 1
  store ptr %185, ptr %8, align 8
  store i8 %183, ptr %184, align 1
  %186 = load ptr, ptr %7, align 8
  %187 = getelementptr inbounds i8, ptr %186, i32 1
  store ptr %187, ptr %7, align 8
  %188 = load i8, ptr %186, align 1
  %189 = load ptr, ptr %8, align 8
  %190 = getelementptr inbounds i8, ptr %189, i32 1
  store ptr %190, ptr %8, align 8
  store i8 %188, ptr %189, align 1
  %191 = load ptr, ptr %7, align 8
  %192 = getelementptr inbounds i8, ptr %191, i32 1
  store ptr %192, ptr %7, align 8
  %193 = load i8, ptr %191, align 1
  %194 = load ptr, ptr %8, align 8
  %195 = getelementptr inbounds i8, ptr %194, i32 1
  store ptr %195, ptr %8, align 8
  store i8 %193, ptr %194, align 1
  %196 = load ptr, ptr %7, align 8
  %197 = getelementptr inbounds i8, ptr %196, i32 1
  store ptr %197, ptr %7, align 8
  %198 = load i8, ptr %196, align 1
  %199 = load ptr, ptr %8, align 8
  %200 = getelementptr inbounds i8, ptr %199, i32 1
  store ptr %200, ptr %8, align 8
  store i8 %198, ptr %199, align 1
  %201 = load ptr, ptr %7, align 8
  %202 = load i8, ptr %201, align 1
  %203 = load ptr, ptr %8, align 8
  %204 = getelementptr inbounds i8, ptr %203, i32 1
  store ptr %204, ptr %8, align 8
  store i8 %202, ptr %203, align 1
  %205 = load ptr, ptr %7, align 8
  %206 = getelementptr inbounds i8, ptr %205, i64 3
  store ptr %206, ptr %7, align 8
  br label %171, !llvm.loop !13

207:                                              ; preds = %171
  %208 = load ptr, ptr %4, align 8
  %209 = getelementptr inbounds %struct.png_row_info_struct, ptr %208, i32 0, i32 5
  store i8 48, ptr %209, align 1
  br label %211

210:                                              ; preds = %153
  br label %234

211:                                              ; preds = %207
  br label %212

212:                                              ; preds = %211, %150
  %213 = load ptr, ptr %4, align 8
  %214 = getelementptr inbounds %struct.png_row_info_struct, ptr %213, i32 0, i32 4
  store i8 3, ptr %214, align 2
  %215 = load ptr, ptr %4, align 8
  %216 = getelementptr inbounds %struct.png_row_info_struct, ptr %215, i32 0, i32 2
  %217 = load i8, ptr %216, align 8
  %218 = zext i8 %217 to i32
  %219 = icmp eq i32 %218, 6
  br i1 %219, label %220, label %223

220:                                              ; preds = %212
  %221 = load ptr, ptr %4, align 8
  %222 = getelementptr inbounds %struct.png_row_info_struct, ptr %221, i32 0, i32 2
  store i8 2, ptr %222, align 8
  br label %223

223:                                              ; preds = %220, %212
  br label %225

224:                                              ; preds = %105
  br label %234

225:                                              ; preds = %223
  br label %226

226:                                              ; preds = %225, %104
  %227 = load ptr, ptr %8, align 8
  %228 = load ptr, ptr %5, align 8
  %229 = ptrtoint ptr %227 to i64
  %230 = ptrtoint ptr %228 to i64
  %231 = sub i64 %229, %230
  %232 = load ptr, ptr %4, align 8
  %233 = getelementptr inbounds %struct.png_row_info_struct, ptr %232, i32 0, i32 1
  store i64 %231, ptr %233, align 8
  br label %234

234:                                              ; preds = %226, %224, %210, %91
  ret void
}